EXPORTS
	_ZN22CMdaAudioPlayerUtility10GetBalanceERi @ 1 NONAME
	_ZN22CMdaAudioPlayerUtility10GetBitRateERj @ 2 NONAME
	_ZN22CMdaAudioPlayerUtility10SetBalanceEi @ 3 NONAME
	_ZN22CMdaAudioPlayerUtility11GetPositionER25TTimeIntervalMicroSeconds @ 4 NONAME
	_ZN22CMdaAudioPlayerUtility11SetPositionERK25TTimeIntervalMicroSeconds @ 5 NONAME
	_ZN22CMdaAudioPlayerUtility11SetPriorityEi22TMdaPriorityPreference @ 6 NONAME
	_ZN22CMdaAudioPlayerUtility13SetPlayWindowERK25TTimeIntervalMicroSecondsS2_ @ 7 NONAME
	_ZN22CMdaAudioPlayerUtility15ClearPlayWindowEv @ 8 NONAME
	_ZN22CMdaAudioPlayerUtility17CustomCommandSyncERK8TPckgBufI22TMMFMessageDestinationEiRK6TDesC8S7_ @ 9 NONAME
	_ZN22CMdaAudioPlayerUtility17CustomCommandSyncERK8TPckgBufI22TMMFMessageDestinationEiRK6TDesC8S7_R5TDes8 @ 10 NONAME
	_ZN22CMdaAudioPlayerUtility17GetMetaDataEntryLEi @ 11 NONAME
	_ZN22CMdaAudioPlayerUtility18CustomCommandAsyncERK8TPckgBufI22TMMFMessageDestinationEiRK6TDesC8S7_R14TRequestStatus @ 12 NONAME
	_ZN22CMdaAudioPlayerUtility18CustomCommandAsyncERK8TPckgBufI22TMMFMessageDestinationEiRK6TDesC8S7_R5TDes8R14TRequestStatus @ 13 NONAME
	_ZN22CMdaAudioPlayerUtility19GetDRMCustomCommandEv @ 14 NONAME
	_ZN22CMdaAudioPlayerUtility24GetAudioLoadingProgressLERi @ 15 NONAME
	_ZN22CMdaAudioPlayerUtility26GetNumberOfMetaDataEntriesERi @ 16 NONAME
	_ZN22CMdaAudioPlayerUtility33RegisterAudioResourceNotificationER37MMMFAudioResourceNotificationCallback4TUidRK6TDesC8 @ 17 NONAME
	_ZN22CMdaAudioPlayerUtility35RegisterForAudioLoadingNotificationER21MAudioLoadingObserver @ 18 NONAME
	_ZN22CMdaAudioPlayerUtility36ControllerImplementationInformationLEv @ 19 NONAME
	_ZN22CMdaAudioPlayerUtility39CancelRegisterAudioResourceNotificationE4TUid @ 20 NONAME
	_ZN22CMdaAudioPlayerUtility4NewLER23MMdaAudioPlayerCallbacki22TMdaPriorityPreference @ 21 NONAME
	_ZN22CMdaAudioPlayerUtility5PauseEv @ 22 NONAME
	_ZN22CMdaAudioPlayerUtility8DurationER25TTimeIntervalMicroSeconds @ 23 NONAME
	_ZN22CMdaAudioPlayerUtility8OpenDesLERK6TDesC8 @ 24 NONAME
	_ZN22CMdaAudioPlayerUtility8OpenUrlLERK7TDesC16iRK6TDesC8 @ 25 NONAME
	_ZN22CMdaAudioPlayerUtility9GetVolumeERi @ 26 NONAME
	_ZN22CMdaAudioPlayerUtility9OpenFileLERK5RFile @ 27 NONAME
	_ZN22CMdaAudioPlayerUtility9OpenFileLERK7TDesC16 @ 28 NONAME
	_ZN22CMdaAudioPlayerUtility9OpenFileLERK9TMMSource @ 29 NONAME
	_ZTI22CMdaAudioPlayerUtility @ 30 NONAME
	_ZTI25CMMFMdaAudioPlayerUtility @ 31 NONAME
	_ZTV22CMdaAudioPlayerUtility @ 32 NONAME
	_ZTV25CMMFMdaAudioPlayerUtility @ 33 NONAME
	_ZN22CMdaAudioPlayerUtility13NewDesPlayerLERK6TDesC8R23MMdaAudioPlayerCallbacki22TMdaPriorityPreferenceP10CMdaServer @ 34 NONAME
	_ZN22CMdaAudioPlayerUtility14NewFilePlayerLERK7TDesC16R23MMdaAudioPlayerCallbacki22TMdaPriorityPreferenceP10CMdaServer @ 35 NONAME
	_ZN22CMdaAudioPlayerUtility21NewDesPlayerReadOnlyLERK6TDesC8R23MMdaAudioPlayerCallbacki22TMdaPriorityPreferenceP10CMdaServer @ 36 NONAME
	_ZN22CMdaAudioPlayerUtility14WillResumePlayEv @ 37 NONAME
	_ZNK22CMdaAudioPlayerUtility17SetThreadPriorityERK15TThreadPriority @ 38 NONAME
	_ZN22CMdaAudioPlayerUtility5CloseEv @ 39 NONAME
	_ZN22CMdaAudioPlayerUtility13UseSharedHeapEv @ 40 NONAME

