EXPORTS
	_ZN22CMdaAudioPlayerUtility10GetBalanceERi @ 1 NONAME
	_ZN22CMdaAudioPlayerUtility10GetBitRateERj @ 2 NONAME
	_ZN22CMdaAudioPlayerUtility10SetBalanceEi @ 3 NONAME
	_ZN22CMdaAudioPlayerUtility11GetPositionER25TTimeIntervalMicroSeconds @ 4 NONAME
	_ZN22CMdaAudioPlayerUtility11SetPositionERK25TTimeIntervalMicroSeconds @ 5 NONAME
	_ZN22CMdaAudioPlayerUtility11SetPriorityEi22TMdaPriorityPreference @ 6 NONAME
	_ZN22CMdaAudioPlayerUtility13SetPlayWindowERK25TTimeIntervalMicroSecondsS2_ @ 7 NONAME
	_ZN22CMdaAudioPlayerUtility15ClearPlayWindowEv @ 8 NONAME
	_ZN22CMdaAudioPlayerUtility17CustomCommandSyncERK8TPckgBufI22TMMFMessageDestinationEiRK6TDesC8S7_ @ 9 NONAME
	_ZN22CMdaAudioPlayerUtility17CustomCommandSyncERK8TPckgBufI22TMMFMessageDestinationEiRK6TDesC8S7_R5TDes8 @ 10 NONAME
	_ZN22CMdaAudioPlayerUtility17GetMetaDataEntryLEi @ 11 NONAME
	_ZN22CMdaAudioPlayerUtility18CustomCommandAsyncERK8TPckgBufI22TMMFMessageDestinationEiRK6TDesC8S7_R14TRequestStatus @ 12 NONAME
	_ZN22CMdaAudioPlayerUtility18CustomCommandAsyncERK8TPckgBufI22TMMFMessageDestinationEiRK6TDesC8S7_R5TDes8R14TRequestStatus @ 13 NONAME
	_ZN22CMdaAudioPlayerUtility19GetDRMCustomCommandEv @ 14 NONAME
	_ZN22CMdaAudioPlayerUtility24GetAudioLoadingProgressLERi @ 15 NONAME
	_ZN22CMdaAudioPlayerUtility26GetNumberOfMetaDataEntriesERi @ 16 NONAME
	_ZN22CMdaAudioPlayerUtility33RegisterAudioResourceNotificationER37MMMFAudioResourceNotificationCallback4TUidRK6TDesC8 @ 17 NONAME
	_ZN22CMdaAudioPlayerUtility35RegisterForAudioLoadingNotificationER21MAudioLoadingObserver @ 18 NONAME
	_ZN22CMdaAudioPlayerUtility36ControllerImplementationInformationLEv @ 19 NONAME
	_ZN22CMdaAudioPlayerUtility39CancelRegisterAudioResourceNotificationE4TUid @ 20 NONAME
	_ZN22CMdaAudioPlayerUtility4NewLER23MMdaAudioPlayerCallbacki22TMdaPriorityPreference @ 21 NONAME
	_ZN22CMdaAudioPlayerUtility5PauseEv @ 22 NONAME
	_ZN22CMdaAudioPlayerUtility8DurationER25TTimeIntervalMicroSeconds @ 23 NONAME
	_ZN22CMdaAudioPlayerUtility8OpenDesLERK6TDesC8 @ 24 NONAME
	_ZN22CMdaAudioPlayerUtility8OpenUrlLERK7TDesC16iRK6TDesC8 @ 25 NONAME
	_ZN22CMdaAudioPlayerUtility9GetVolumeERi @ 26 NONAME
	_ZN22CMdaAudioPlayerUtility9OpenFileLERK5RFile @ 27 NONAME
	_ZN22CMdaAudioPlayerUtility9OpenFileLERK7TDesC16 @ 28 NONAME
	_ZN22CMdaAudioPlayerUtility9OpenFileLERK9TMMSource @ 29 NONAME
	_ZTI22CMdaAudioPlayerUtility @ 30 NONAME
	_ZTI25CMMFMdaAudioPlayerUtility @ 31 NONAME
	_ZTV22CMdaAudioPlayerUtility @ 32 NONAME
	_ZTV25CMMFMdaAudioPlayerUtility @ 33 NONAME
	_ZN22CMdaAudioPlayerUtility13NewDesPlayerLERK6TDesC8R23MMdaAudioPlayerCallbacki22TMdaPriorityPreferenceP10CMdaServer @ 34 NONAME
	_ZN22CMdaAudioPlayerUtility14NewFilePlayerLERK7TDesC16R23MMdaAudioPlayerCallbacki22TMdaPriorityPreferenceP10CMdaServer @ 35 NONAME
	_ZN22CMdaAudioPlayerUtility21NewDesPlayerReadOnlyLERK6TDesC8R23MMdaAudioPlayerCallbacki22TMdaPriorityPreferenceP10CMdaServer @ 36 NONAME
	_ZN22CMdaAudioPlayerUtility14WillResumePlayEv @ 37 NONAME
	_ZNK22CMdaAudioPlayerUtility17SetThreadPriorityERK15TThreadPriority @ 38 NONAME
	_ZN22CMdaAudioPlayerUtility5CloseEv @ 39 NONAME
	_ZN22CMdaAudioPlayerUtility13UseSharedHeapEv @ 40 NONAME
	_ZTI19CMMFMdaAudioUtility @ 41 NONAME
	_ZTI27CMMFMdaAudioRecorderUtility @ 42 NONAME
	_ZTV19CMMFMdaAudioUtility @ 43 NONAME
	_ZTV27CMMFMdaAudioRecorderUtility @ 44 NONAME
	_ZN24CMdaAudioRecorderUtility11SetPriorityEi22TMdaPriorityPreference @ 45 NONAME
	_ZN24CMdaAudioRecorderUtility13UseSharedHeapEv @ 46 NONAME
	_ZN24CMdaAudioRecorderUtility14SourceBitRateLEv @ 47 NONAME
	_ZN24CMdaAudioRecorderUtility14WillResumePlayEv @ 48 NONAME
	_ZN24CMdaAudioRecorderUtility16GetRecordBalanceERi @ 49 NONAME
	_ZN24CMdaAudioRecorderUtility16SetRecordBalanceEi @ 50 NONAME
	_ZN24CMdaAudioRecorderUtility17AddMetaDataEntryLER17CMMFMetaDataEntry @ 51 NONAME
	_ZN24CMdaAudioRecorderUtility17GetMetaDataEntryLEi @ 52 NONAME
	_ZN24CMdaAudioRecorderUtility18DestinationFormatLEv @ 53 NONAME
	_ZN24CMdaAudioRecorderUtility18GetPlaybackBalanceERi @ 54 NONAME
	_ZN24CMdaAudioRecorderUtility18SetPlaybackBalanceEi @ 55 NONAME
	_ZN24CMdaAudioRecorderUtility19DestinationBitRateLEv @ 56 NONAME
	_ZN24CMdaAudioRecorderUtility19GetDRMCustomCommandEv @ 57 NONAME
	_ZN24CMdaAudioRecorderUtility19RemoveMetaDataEntryEi @ 58 NONAME
	_ZN24CMdaAudioRecorderUtility20DestinationDataTypeLEv @ 59 NONAME
	_ZN24CMdaAudioRecorderUtility21GetSupportedBitRatesLER6RArrayIjE @ 60 NONAME
	_ZN24CMdaAudioRecorderUtility21ReplaceMetaDataEntryLEiR17CMMFMetaDataEntry @ 61 NONAME
	_ZN24CMdaAudioRecorderUtility21SetDestinationFormatLE4TUid @ 62 NONAME
	_ZN24CMdaAudioRecorderUtility22DestinationSampleRateLEv @ 63 NONAME
	_ZN24CMdaAudioRecorderUtility22SetDestinationBitRateLEj @ 64 NONAME
	_ZN24CMdaAudioRecorderUtility23SetDestinationDataTypeLE7TFourCC @ 65 NONAME
	_ZN24CMdaAudioRecorderUtility24GetAudioLoadingProgressLERi @ 66 NONAME
	_ZN24CMdaAudioRecorderUtility24GetSupportedSampleRatesLER6RArrayIjE @ 67 NONAME
	_ZN24CMdaAudioRecorderUtility25SetDestinationSampleRateLEj @ 68 NONAME
	_ZN24CMdaAudioRecorderUtility26GetNumberOfMetaDataEntriesERi @ 69 NONAME
	_ZN24CMdaAudioRecorderUtility28DestinationNumberOfChannelsLEv @ 70 NONAME
	_ZN24CMdaAudioRecorderUtility29GetSupportedNumberOfChannelsLER6RArrayIjE @ 71 NONAME
	_ZN24CMdaAudioRecorderUtility31PlayControllerCustomCommandSyncERK8TPckgBufI22TMMFMessageDestinationEiRK6TDesC8S7_ @ 72 NONAME
	_ZN24CMdaAudioRecorderUtility31PlayControllerCustomCommandSyncERK8TPckgBufI22TMMFMessageDestinationEiRK6TDesC8S7_R5TDes8 @ 73 NONAME
	_ZN24CMdaAudioRecorderUtility31SetDestinationNumberOfChannelsLEj @ 74 NONAME
	_ZN24CMdaAudioRecorderUtility32PlayControllerCustomCommandAsyncERK8TPckgBufI22TMMFMessageDestinationEiRK6TDesC8S7_R14TRequestStatus @ 75 NONAME
	_ZN24CMdaAudioRecorderUtility32PlayControllerCustomCommandAsyncERK8TPckgBufI22TMMFMessageDestinationEiRK6TDesC8S7_R5TDes8R14TRequestStatus @ 76 NONAME
	_ZN24CMdaAudioRecorderUtility33GetSupportedDestinationDataTypesLER6RArrayI7TFourCCE @ 77 NONAME
	_ZN24CMdaAudioRecorderUtility33RecordControllerCustomCommandSyncERK8TPckgBufI22TMMFMessageDestinationEiRK6TDesC8S7_ @ 78 NONAME
	_ZN24CMdaAudioRecorderUtility33RecordControllerCustomCommandSyncERK8TPckgBufI22TMMFMessageDestinationEiRK6TDesC8S7_R5TDes8 @ 79 NONAME
	_ZN24CMdaAudioRecorderUtility33RegisterAudioResourceNotificationER37MMMFAudioResourceNotificationCallback4TUidRK6TDesC8 @ 80 NONAME
	_ZN24CMdaAudioRecorderUtility34RecordControllerCustomCommandAsyncERK8TPckgBufI22TMMFMessageDestinationEiRK6TDesC8S7_R14TRequestStatus @ 81 NONAME
	_ZN24CMdaAudioRecorderUtility34RecordControllerCustomCommandAsyncERK8TPckgBufI22TMMFMessageDestinationEiRK6TDesC8S7_R5TDes8R14TRequestStatus @ 82 NONAME
	_ZN24CMdaAudioRecorderUtility35RegisterForAudioLoadingNotificationER21MAudioLoadingObserver @ 83 NONAME
	_ZN24CMdaAudioRecorderUtility39CancelRegisterAudioResourceNotificationE4TUid @ 84 NONAME
	_ZN24CMdaAudioRecorderUtility45AudioPlayControllerImplementationInformationLEv @ 85 NONAME
	_ZN24CMdaAudioRecorderUtility49AudioRecorderControllerImplementationInformationLEv @ 86 NONAME
	_ZN24CMdaAudioRecorderUtility4NewLER29MMdaObjectStateChangeObserverP10CMdaServeri22TMdaPriorityPreference @ 87 NONAME
	_ZN24CMdaAudioRecorderUtility7GetGainERi @ 88 NONAME
	_ZN24CMdaAudioRecorderUtility8DurationER25TTimeIntervalMicroSeconds @ 89 NONAME
	_ZN24CMdaAudioRecorderUtility8OpenDesLER5TDes8 @ 90 NONAME
	_ZN24CMdaAudioRecorderUtility8OpenDesLER5TDes84TUidS2_S2_7TFourCC @ 91 NONAME
	_ZN24CMdaAudioRecorderUtility8OpenUrlLERK7TDesC16i4TUidS3_S3_7TFourCC @ 92 NONAME
	_ZN24CMdaAudioRecorderUtility8OpenUrlLERK7TDesC16iRK6TDesC8 @ 93 NONAME
	_ZN24CMdaAudioRecorderUtility9GetVolumeERi @ 94 NONAME
	_ZN24CMdaAudioRecorderUtility9OpenFileLERK5RFile @ 95 NONAME
	_ZN24CMdaAudioRecorderUtility9OpenFileLERK5RFile4TUidS3_S3_7TFourCC @ 96 NONAME
	_ZN24CMdaAudioRecorderUtility9OpenFileLERK9TMMSource @ 97 NONAME
	_ZN24CMdaAudioRecorderUtility9OpenFileLERK9TMMSource4TUidS3_S3_7TFourCC @ 98 NONAME
	_ZNK24CMdaAudioRecorderUtility23SetThreadPriorityRecordERK15TThreadPriority @ 99 NONAME
	_ZNK24CMdaAudioRecorderUtility25SetThreadPriorityPlaybackERK15TThreadPriority @ 100 NONAME
	_ZTI20CMdaAudioClipUtility @ 101 NONAME
	_ZTI24CMdaAudioRecorderUtility @ 102 NONAME
	_ZTV20CMdaAudioClipUtility @ 103 NONAME
	_ZTV24CMdaAudioRecorderUtility @ 104 NONAME
	_ZN24CMdaAudioRecorderUtility9OpenFileLERK7TDesC164TUidS3_S3_7TFourCC @ 105 NONAME

