EXPORTS
	_Z25NewSurfaceManagerFactoryLv @ 1 NONAME
	_ZN15CPostingSurface12TPostingBuff7GetSizeEv @ 2 NONAME
	_ZN15CPostingSurface12TPostingBuff7GetTypeEv @ 3 NONAME
	_ZN15CPostingSurface12TPostingBuff9GetBufferEv @ 4 NONAME
	_ZN15CPostingSurface12TPostingBuff9GetStrideEv @ 5 NONAME
	_ZN15CPostingSurface12TPostingBuffC1Ev @ 6 NONAME
	_ZN15CPostingSurface12TPostingBuffC2Ev @ 7 NONAME
	_ZN15CPostingSurface15TPostingBuffExt7SetSizeE5TSize @ 8 NONAME
	_ZN15CPostingSurface15TPostingBuffExt9SetBufferEPv @ 9 NONAME
	_ZN15CPostingSurface15TPostingBuffExt9SetStrideEj @ 10 NONAME
	_ZN15CPostingSurface15TPostingBuffExtC1Ev @ 11 NONAME
	_ZN15CPostingSurface15TPostingBuffExtC2Ev @ 12 NONAME
	_ZN15CPostingSurface19TPostingBufferChunk16GetOffsetInChunkEv @ 13 NONAME
	_ZN15CPostingSurface19TPostingBufferChunk8GetChunkEv @ 14 NONAME
	_ZN15CPostingSurface19TPostingBufferChunkC1Ev @ 15 NONAME
	_ZN15CPostingSurface19TPostingBufferChunkC2Ev @ 16 NONAME
	_ZTI19CPostingSurfaceImpl @ 17 NONAME
	_ZTI19CScreenSyncListener @ 18 NONAME
	_ZTI22CPostingSurfaceFactory @ 19 NONAME
	_ZTIN15CPostingSurface12TPostingBuffE @ 20 NONAME
	_ZTIN15CPostingSurface15TPostingBuffExtE @ 21 NONAME
	_ZTIN15CPostingSurface19TPostingBufferChunkE @ 22 NONAME
	_ZTV19CPostingSurfaceImpl @ 23 NONAME
	_ZTV19CScreenSyncListener @ 24 NONAME
	_ZTV22CPostingSurfaceFactory @ 25 NONAME
	_ZTVN15CPostingSurface12TPostingBuffE @ 26 NONAME
	_ZTVN15CPostingSurface15TPostingBuffExtE @ 27 NONAME
	_ZTVN15CPostingSurface19TPostingBufferChunkE @ 28 NONAME
